(dp0
S'2001-10-29 05:00:00+00:00'
p1
ccopy_reg
_reconstructor
p2
(cMessage
Message
p3
c__builtin__
object
p4
Ntp5
Rp6
(dp7
S'_email_id'
p8
S'def@email.com'
p9
sS'_body'
p10
S'System Notificaion-second'
p11
sS'_epoch_secs'
p12
S'10045'
p13
sS'_datetime'
p14
g1
sS'_subject'
p15
S'Path 31'
p16
sS'_node_id'
p17
S'2'
p18
sbsS'2001-10-31 05:00:00+00:00'
p19
g2
(g3
g4
Ntp20
Rp21
(dp22
g8
S'abc@email.com'
p23
sg10
S'System Notificaion-'
p24
sg12
S'1004505836'
p25
sg14
g19
sg15
S'Path 30'
p26
sg17
S'1'
p27
sbs.